target datalayout = "e-m:e-p270:32:32-p271:32:32-p272:64:64-i64:64-i128:128-f80:128-n8:16:32:64-S128"
target triple = "x86_64-pc-linux-gnu"

%struct.TupleTableSlot = type { i32, i16, i16, ptr, ptr, ptr, ptr, ptr, %struct.ItemPointerData, i32 }
%struct.ItemPointerData = type { %struct.BlockIdData, i16 }
%struct.BlockIdData = type { i16, i16 }
%struct.HeapTupleTableSlot = type { %struct.TupleTableSlot, ptr, i32, %struct.HeapTupleData }
%struct.HeapTupleData = type { i32, %struct.ItemPointerData, i32, ptr }

; Function Attrs: inlinehint nounwind uwtable
define internal void @BlockIdSet(ptr noundef %0, i32 noundef %1) #4 {
  %3 = alloca ptr, align 8
  %4 = alloca i32, align 4
  store ptr %0, ptr %3, align 8
  store i32 %1, ptr %4, align 4
  %5 = load i32, ptr %4, align 4
  %6 = lshr i32 %5, 16
  %7 = trunc i32 %6 to i16
  %8 = load ptr, ptr %3, align 8
  %9 = getelementptr inbounds nuw %struct.BlockIdData, ptr %8, i32 0, i32 0
  store i16 %7, ptr %9, align 2
  %10 = load i32, ptr %4, align 4
  %11 = and i32 %10, 65535
  %12 = trunc i32 %11 to i16
  %13 = load ptr, ptr %3, align 8
  %14 = getelementptr inbounds nuw %struct.BlockIdData, ptr %13, i32 0, i32 1
  store i16 %12, ptr %14, align 2
  ret void
}

; Function Attrs: inlinehint nounwind uwtable
define internal void @ItemPointerSetInvalid(ptr noundef %0) #4 {
  %2 = alloca ptr, align 8
  store ptr %0, ptr %2, align 8
  %3 = load ptr, ptr %2, align 8
  %4 = getelementptr inbounds nuw %struct.ItemPointerData, ptr %3, i32 0, i32 0
  call void @BlockIdSet(ptr noundef %4, i32 noundef -1)
  %5 = load ptr, ptr %2, align 8
  %6 = getelementptr inbounds nuw %struct.ItemPointerData, ptr %5, i32 0, i32 1
  store i16 0, ptr %6, align 2
  ret void
}

; Function Attrs: nounwind uwtable
define internal void @tts_heap_clear(ptr noundef %0) #0 {
  %2 = alloca ptr, align 8
  %3 = alloca ptr, align 8
  store ptr %0, ptr %2, align 8
  call void @llvm.lifetime.start.p0(i64 8, ptr %3) #10
  %4 = load ptr, ptr %2, align 8
  store ptr %4, ptr %3, align 8
  %5 = load ptr, ptr %2, align 8
  %6 = getelementptr inbounds nuw %struct.TupleTableSlot, ptr %5, i32 0, i32 1
  %7 = load i16, ptr %6, align 4
  %8 = zext i16 %7 to i32
  %9 = and i32 %8, 4
  %10 = icmp ne i32 %9, 0
  br i1 %10, label %11, label %21

11:                                               ; preds = %1
  %12 = load ptr, ptr %3, align 8
  %13 = getelementptr inbounds nuw %struct.HeapTupleTableSlot, ptr %12, i32 0, i32 1
  %14 = load ptr, ptr %13, align 8
  call void @heap_freetuple(ptr noundef %14)
  %15 = load ptr, ptr %2, align 8
  %16 = getelementptr inbounds nuw %struct.TupleTableSlot, ptr %15, i32 0, i32 1
  %17 = load i16, ptr %16, align 4
  %18 = zext i16 %17 to i32
  %19 = and i32 %18, -5
  %20 = trunc i32 %19 to i16
  store i16 %20, ptr %16, align 4
  br label %21

21:                                               ; preds = %11, %1
  %22 = load ptr, ptr %2, align 8
  %23 = getelementptr inbounds nuw %struct.TupleTableSlot, ptr %22, i32 0, i32 2
  store i16 0, ptr %23, align 2
  %24 = load ptr, ptr %2, align 8
  %25 = getelementptr inbounds nuw %struct.TupleTableSlot, ptr %24, i32 0, i32 1
  %26 = load i16, ptr %25, align 4
  %27 = zext i16 %26 to i32
  %28 = or i32 %27, 2
  %29 = trunc i32 %28 to i16
  store i16 %29, ptr %25, align 4
  %30 = load ptr, ptr %2, align 8
  %31 = getelementptr inbounds nuw %struct.TupleTableSlot, ptr %30, i32 0, i32 8
  call void @ItemPointerSetInvalid(ptr noundef %31)
  %32 = load ptr, ptr %3, align 8
  %33 = getelementptr inbounds nuw %struct.HeapTupleTableSlot, ptr %32, i32 0, i32 2
  store i32 0, ptr %33, align 8
  %34 = load ptr, ptr %3, align 8
  %35 = getelementptr inbounds nuw %struct.HeapTupleTableSlot, ptr %34, i32 0, i32 1
  store ptr null, ptr %35, align 8
  call void @llvm.lifetime.end.p0(i64 8, ptr %3) #10
  ret void
}