; Function Attrs: nounwind uwtable
define internal void @tts_heap_clear(ptr noundef captures(none) initializes((6, 8), (48, 54), (72, 76)) %0) #1 {
  %2 = getelementptr inbounds nuw i8, ptr %0, i64 4
  %3 = load i16, ptr %2, align 4
  %4 = and i16 %3, 4
  %.not = icmp eq i16 %4, 0
  br i1 %.not, label %10, label %5

5:                                                ; preds = %1
  %6 = getelementptr inbounds nuw i8, ptr %0, i64 64
  %7 = load ptr, ptr %6, align 8
  tail call void @heap_freetuple(ptr noundef %7) #14
  %8 = load i16, ptr %2, align 4
  %9 = and i16 %8, -5
  br label %10

10:                                               ; preds = %5, %1
  %11 = phi i16 [ %9, %5 ], [ %3, %1 ]
  %12 = getelementptr inbounds nuw i8, ptr %0, i64 6
  store i16 0, ptr %12, align 2
  %13 = or i16 %11, 2
  store i16 %13, ptr %2, align 4
  %14 = getelementptr inbounds nuw i8, ptr %0, i64 48
  store i16 -1, ptr %14, align 2
  %15 = getelementptr inbounds nuw i8, ptr %0, i64 50
  store i16 -1, ptr %15, align 2
  %16 = getelementptr inbounds nuw i8, ptr %0, i64 52
  store i16 0, ptr %16, align 2
  %17 = getelementptr inbounds nuw i8, ptr %0, i64 72
  store i32 0, ptr %17, align 8
  %18 = getelementptr inbounds nuw i8, ptr %0, i64 64
  store ptr null, ptr %18, align 8
  ret void
}